target datalayout = "e-m:e-p270:32:32-p271:32:32-p272:64:64-i64:64-i128:128-f80:128-n8:16:32:64-S128"
target triple = "x86_64-pc-linux-gnu"

@.str.26 = private unnamed_addr constant [36 x i8] c"credential url cannot be parsed: %s\00", align 1

; Function Attrs: nounwind uwtable
define dso_local i32 @credential_from_url_gently(ptr noundef %0, ptr noundef %1, i32 noundef %2) #0 {
  %4 = alloca ptr, align 8
  %5 = alloca ptr, align 8
  %6 = alloca i32, align 4
  store ptr %0, ptr %4, align 8, !tbaa !4
  store ptr %1, ptr %5, align 8, !tbaa !32
  store i32 %2, ptr %6, align 4, !tbaa !27
  %7 = load ptr, ptr %4, align 8, !tbaa !4
  %8 = load ptr, ptr %5, align 8, !tbaa !32
  %9 = load i32, ptr %6, align 4, !tbaa !27
  %10 = call i32 @credential_from_url_1(ptr noundef %7, ptr noundef %8, i32 noundef 0, i32 noundef %9)
  ret i32 %10
}

; Function Attrs: nounwind uwtable
define dso_local void @credential_from_url(ptr noundef %0, ptr noundef %1) #0 {
  %3 = alloca ptr, align 8
  %4 = alloca ptr, align 8
  store ptr %0, ptr %3, align 8, !tbaa !4
  store ptr %1, ptr %4, align 8, !tbaa !32
  %5 = load ptr, ptr %3, align 8, !tbaa !4
  %6 = load ptr, ptr %4, align 8, !tbaa !32
  %7 = call i32 @credential_from_url_gently(ptr noundef %5, ptr noundef %6, i32 noundef 0)
  %8 = icmp slt i32 %7, 0
  br i1 %8, label %9, label %12

9:                                                ; preds = %2
  %10 = call ptr @_(ptr noundef @.str.26)
  %11 = load ptr, ptr %4, align 8, !tbaa !32
  call void (ptr, ...) @die(ptr noundef %10, ptr noundef %11) #13
  unreachable

12:                                               ; preds = %2
  ret void
}