; Function Attrs: nounwind uwtable
define dso_local void @credential_from_url(ptr noundef %0, ptr noundef %1) local_unnamed_addr #3 {
  %3 = tail call fastcc range(i32 -1, 1) i32 @credential_from_url_1(ptr noundef %0, ptr noundef %1, i32 noundef 0, i32 noundef 0)
  %4 = icmp slt i32 %3, 0
  br i1 %4, label %5, label %7

5:                                                ; preds = %2
  %6 = tail call fastcc ptr @_(ptr noundef nonnull @.str.26)
  tail call void (ptr, ...) @die(ptr noundef %6, ptr noundef %1) #22
  unreachable

7:                                                ; preds = %2
  ret void
}